; Function Attrs: mustprogress uwtable
define noundef ptr @_Z46grpc_alts_server_credentials_create_customizedPK29grpc_alts_credentials_optionsPKcb(ptr noundef %options, ptr noundef %handshaker_service_url, i1 noundef zeroext %enable_untrusted_alts) local_unnamed_addr #3 personality ptr @__gxx_personality_v0 {
entry:
  br i1 %enable_untrusted_alts, label %if.end, label %land.lhs.true

land.lhs.true:                                    ; preds = %entry
  %call = tail call noundef zeroext i1 @_Z27grpc_alts_is_running_on_gcpv()
  br i1 %call, label %if.end, label %return

if.end:                                           ; preds = %land.lhs.true, %entry
  %call1 = tail call noalias noundef nonnull dereferenceable(56) ptr @_Znwm(i64 noundef 56) #17
  invoke void @_ZN28grpc_alts_server_credentialsC1EPK29grpc_alts_credentials_optionsPKc(ptr noundef nonnull align 8 dereferenceable(56) %call1, ptr noundef %options, ptr noundef %handshaker_service_url)
          to label %return unwind label %lpad

lpad:                                             ; preds = %if.end
  %0 = landingpad { ptr, i32 }
          cleanup
  tail call void @_ZdlPv(ptr noundef nonnull %call1) #16
  resume { ptr, i32 } %0

return:                                           ; preds = %if.end, %land.lhs.true
  %retval.0 = phi ptr [ null, %land.lhs.true ], [ %call1, %if.end ]
  ret ptr %retval.0
}